target datalayout = "e-m:e-p270:32:32-p271:32:32-p272:64:64-i64:64-i128:128-f80:128-n8:16:32:64-S128"
target triple = "x86_64-pc-linux-gnu"

%struct._psqlSettings = type { ptr, i32, ptr, i8, ptr, ptr, %struct.printQueryOpt, ptr, ptr, ptr, i8, i8, i32, i32, ptr, ptr, i8, [4 x ptr], i8, i32, ptr, i8, i32, ptr, ptr, i64, i64, i8, ptr, ptr, ptr, i8, i8, i8, i8, i8, i8, i8, i32, i32, i32, i32, i32, i32, i32, i32, ptr, ptr, ptr, i32, i8, i32 }
%struct.printQueryOpt = type { %struct.printTableOpt, ptr, ptr, ptr, i8, ptr, i32 }
%struct.printTableOpt = type { i32, i16, i32, i32, i16, i16, i32, i8, i8, i8, i8, i64, ptr, %struct.separator, %struct.separator, [2 x i8], i8, ptr, i32, i32, i32, i32, i32, i32 }
%struct.separator = type { ptr, i8 }
%struct.PQExpBufferData = type { ptr, i64, i64 }

@pset = external global %struct._psqlSettings, align 8
@.str.2 = private unnamed_addr constant [5 x i8] c"Name\00", align 1
@.str.6 = private unnamed_addr constant [12 x i8] c"Description\00", align 1
@.str.9 = private unnamed_addr constant [10 x i8] c"n.nspname\00", align 1
@.str.23 = private unnamed_addr constant [12 x i8] c"ORDER BY 1;\00", align 1
@.str.26 = private unnamed_addr constant [6 x i8] c"Owner\00", align 1
@.str.28 = private unnamed_addr constant [5 x i8] c",\0A  \00", align 1
@.str.167 = private unnamed_addr constant [18 x i8] c"Access privileges\00", align 1
@.str.437 = private unnamed_addr constant [75 x i8] c"SELECT n.nspname AS \22%s\22,\0A  pg_catalog.pg_get_userbyid(n.nspowner) AS \22%s\22\00", align 1
@.str.438 = private unnamed_addr constant [9 x i8] c"n.nspacl\00", align 1
@.str.439 = private unnamed_addr constant [62 x i8] c",\0A  pg_catalog.obj_description(n.oid, 'pg_namespace') AS \22%s\22\00", align 1
@.str.440 = private unnamed_addr constant [33 x i8] c"\0AFROM pg_catalog.pg_namespace n\0A\00", align 1
@.str.441 = private unnamed_addr constant [65 x i8] c"WHERE n.nspname !~ '^pg_' AND n.nspname <> 'information_schema'\0A\00", align 1
@.str.442 = private unnamed_addr constant [16 x i8] c"List of schemas\00", align 1
@.str.443 = private unnamed_addr constant [213 x i8] c"SELECT pubname \0AFROM pg_catalog.pg_publication p\0A     JOIN pg_catalog.pg_publication_namespace pn ON p.oid = pn.pnpubid\0A     JOIN pg_catalog.pg_namespace n ON n.oid = pn.pnnspid \0AWHERE n.nspname = '%s'\0AORDER BY 1\00", align 1
@.str.444 = private unnamed_addr constant [14 x i8] c"Publications:\00", align 1
@.str.445 = private unnamed_addr constant [9 x i8] c"    \22%s\22\00", align 1
@.str.916 = private unnamed_addr constant [110 x i8] c"CASE WHEN pg_catalog.array_length(%s, 1) = 0 THEN '%s' ELSE pg_catalog.array_to_string(%s, E'\\n') END AS \22%s\22\00", align 1
@.str.917 = private unnamed_addr constant [7 x i8] c"(none)\00", align 1

; Function Attrs: nounwind uwtable
define internal void @printACLColumn(ptr noundef %0, ptr noundef %1) #0 {
  %3 = alloca ptr, align 8
  %4 = alloca ptr, align 8
  store ptr %0, ptr %3, align 8
  store ptr %1, ptr %4, align 8
  %5 = load ptr, ptr %3, align 8
  %6 = load ptr, ptr %4, align 8
  %7 = load ptr, ptr %4, align 8
  call void (ptr, ptr, ...) @appendPQExpBuffer(ptr noundef %5, ptr noundef @.str.916, ptr noundef %6, ptr noundef @.str.917, ptr noundef %7, ptr noundef @.str.167)
  ret void
}

; Function Attrs: nounwind uwtable
define dso_local zeroext i1 @listSchemas(ptr noundef %0, i1 noundef zeroext %1, i1 noundef zeroext %2) #0 {
  %4 = alloca i1, align 1
  %5 = alloca ptr, align 8
  %6 = alloca i8, align 1
  %7 = alloca i8, align 1
  %8 = alloca %struct.PQExpBufferData, align 8
  %9 = alloca ptr, align 8
  %10 = alloca %struct.printQueryOpt, align 8
  %11 = alloca i32, align 4
  %12 = alloca ptr, align 8
  %13 = alloca ptr, align 8
  %14 = alloca i32, align 4
  %15 = alloca i32, align 4
  %16 = alloca ptr, align 8
  store ptr %0, ptr %5, align 8
  %17 = zext i1 %1 to i8
  store i8 %17, ptr %6, align 1
  %18 = zext i1 %2 to i8
  store i8 %18, ptr %7, align 1
  call void @llvm.lifetime.start.p0(i64 24, ptr %8) #8
  call void @llvm.lifetime.start.p0(i64 8, ptr %9) #8
  call void @llvm.lifetime.start.p0(i64 168, ptr %10) #8
  call void @llvm.memcpy.p0.p0.i64(ptr align 8 %10, ptr align 8 getelementptr inbounds nuw (%struct._psqlSettings, ptr @pset, i32 0, i32 6), i64 168, i1 false)
  call void @llvm.lifetime.start.p0(i64 4, ptr %11) #8
  store i32 0, ptr %11, align 4
  call void @llvm.lifetime.start.p0(i64 8, ptr %12) #8
  store ptr null, ptr %12, align 8
  call void @initPQExpBuffer(ptr noundef %8)
  call void (ptr, ptr, ...) @printfPQExpBuffer(ptr noundef %8, ptr noundef @.str.437, ptr noundef @.str.2, ptr noundef @.str.26)
  %19 = load i8, ptr %6, align 1, !range !4, !noundef !5
  %20 = trunc i8 %19 to i1
  br i1 %20, label %21, label %22

21:                                               ; preds = %3
  call void @appendPQExpBufferStr(ptr noundef %8, ptr noundef @.str.28)
  call void @printACLColumn(ptr noundef %8, ptr noundef @.str.438)
  call void (ptr, ptr, ...) @appendPQExpBuffer(ptr noundef %8, ptr noundef @.str.439, ptr noundef @.str.6)
  br label %22

22:                                               ; preds = %21, %3
  call void @appendPQExpBufferStr(ptr noundef %8, ptr noundef @.str.440)
  %23 = load i8, ptr %7, align 1, !range !4, !noundef !5
  %24 = trunc i8 %23 to i1
  br i1 %24, label %29, label %25

25:                                               ; preds = %22
  %26 = load ptr, ptr %5, align 8
  %27 = icmp ne ptr %26, null
  br i1 %27, label %29, label %28

28:                                               ; preds = %25
  call void @appendPQExpBufferStr(ptr noundef %8, ptr noundef @.str.441)
  br label %29

29:                                               ; preds = %28, %25, %22
  %30 = load ptr, ptr %5, align 8
  %31 = load i8, ptr %7, align 1, !range !4, !noundef !5
  %32 = trunc i8 %31 to i1
  br i1 %32, label %37, label %33

33:                                               ; preds = %29
  %34 = load ptr, ptr %5, align 8
  %35 = icmp ne ptr %34, null
  %36 = xor i1 %35, true
  br label %37

37:                                               ; preds = %33, %29
  %38 = phi i1 [ false, %29 ], [ %36, %33 ]
  %39 = call zeroext i1 @validateSQLNamePattern(ptr noundef %8, ptr noundef %30, i1 noundef zeroext %38, i1 noundef zeroext false, ptr noundef null, ptr noundef @.str.9, ptr noundef null, ptr noundef null, ptr noundef null, i32 noundef 2)
  br i1 %39, label %41, label %40

40:                                               ; preds = %37
  br label %134

41:                                               ; preds = %37
  call void @appendPQExpBufferStr(ptr noundef %8, ptr noundef @.str.23)
  %42 = getelementptr inbounds nuw %struct.PQExpBufferData, ptr %8, i32 0, i32 0
  %43 = load ptr, ptr %42, align 8
  %44 = call ptr @PSQLexec(ptr noundef %43)
  store ptr %44, ptr %9, align 8
  %45 = load ptr, ptr %9, align 8
  %46 = icmp ne ptr %45, null
  br i1 %46, label %48, label %47

47:                                               ; preds = %41
  br label %134

48:                                               ; preds = %41
  %49 = getelementptr inbounds nuw %struct.printQueryOpt, ptr %10, i32 0, i32 2
  store ptr @.str.442, ptr %49, align 8
  %50 = getelementptr inbounds nuw %struct.printQueryOpt, ptr %10, i32 0, i32 4
  store i8 1, ptr %50, align 8
  %51 = load ptr, ptr %5, align 8
  %52 = icmp ne ptr %51, null
  br i1 %52, label %53, label %112

53:                                               ; preds = %48
  %54 = load i32, ptr getelementptr inbounds nuw (%struct._psqlSettings, ptr @pset, i32 0, i32 22), align 4
  %55 = icmp sge i32 %54, 150000
  br i1 %55, label %56, label %112

56:                                               ; preds = %53
  call void @llvm.lifetime.start.p0(i64 8, ptr %13) #8
  call void @llvm.lifetime.start.p0(i64 4, ptr %14) #8
  %57 = load ptr, ptr %5, align 8
  call void (ptr, ptr, ...) @printfPQExpBuffer(ptr noundef %8, ptr noundef @.str.443, ptr noundef %57)
  %58 = getelementptr inbounds nuw %struct.PQExpBufferData, ptr %8, i32 0, i32 0
  %59 = load ptr, ptr %58, align 8
  %60 = call ptr @PSQLexec(ptr noundef %59)
  store ptr %60, ptr %13, align 8
  %61 = load ptr, ptr %13, align 8
  %62 = icmp ne ptr %61, null
  br i1 %62, label %64, label %63

63:                                               ; preds = %56
  store i32 2, ptr %15, align 4
  br label %109

64:                                               ; preds = %56
  %65 = load ptr, ptr %13, align 8
  %66 = call i32 @PQntuples(ptr noundef %65)
  store i32 %66, ptr %11, align 4
  br label %67

67:                                               ; preds = %64
  %68 = load i32, ptr %11, align 4
  %69 = icmp sgt i32 %68, 0
  br i1 %69, label %70, label %107

70:                                               ; preds = %67
  %71 = load i32, ptr %11, align 4
  %72 = add i32 1, %71
  %73 = add i32 %72, 1
  %74 = sext i32 %73 to i64
  %75 = mul i64 %74, 8
  %76 = call ptr @pg_malloc(i64 noundef %75)
  store ptr %76, ptr %12, align 8
  %77 = call ptr @pg_strdup(ptr noundef @.str.444)
  %78 = load ptr, ptr %12, align 8
  %79 = getelementptr inbounds ptr, ptr %78, i64 0
  store ptr %77, ptr %79, align 8
  store i32 0, ptr %14, align 4
  br label %80

80:                                               ; preds = %96, %70
  %81 = load i32, ptr %14, align 4
  %82 = load i32, ptr %11, align 4
  %83 = icmp slt i32 %81, %82
  br i1 %83, label %84, label %99

84:                                               ; preds = %80
  %85 = load ptr, ptr %13, align 8
  %86 = load i32, ptr %14, align 4
  %87 = call ptr @PQgetvalue(ptr noundef %85, i32 noundef %86, i32 noundef 0)
  call void (ptr, ptr, ...) @printfPQExpBuffer(ptr noundef %8, ptr noundef @.str.445, ptr noundef %87)
  %88 = getelementptr inbounds nuw %struct.PQExpBufferData, ptr %8, i32 0, i32 0
  %89 = load ptr, ptr %88, align 8
  %90 = call ptr @pg_strdup(ptr noundef %89)
  %91 = load ptr, ptr %12, align 8
  %92 = load i32, ptr %14, align 4
  %93 = add i32 %92, 1
  %94 = sext i32 %93 to i64
  %95 = getelementptr inbounds ptr, ptr %91, i64 %94
  store ptr %90, ptr %95, align 8
  br label %96

96:                                               ; preds = %84
  %97 = load i32, ptr %14, align 4
  %98 = add i32 %97, 1
  store i32 %98, ptr %14, align 4
  br label %80, !llvm.loop !32

99:                                               ; preds = %80
  %100 = load ptr, ptr %12, align 8
  %101 = load i32, ptr %14, align 4
  %102 = add i32 %101, 1
  %103 = sext i32 %102 to i64
  %104 = getelementptr inbounds ptr, ptr %100, i64 %103
  store ptr null, ptr %104, align 8
  %105 = load ptr, ptr %12, align 8
  %106 = getelementptr inbounds nuw %struct.printQueryOpt, ptr %10, i32 0, i32 3
  store ptr %105, ptr %106, align 8
  br label %107

107:                                              ; preds = %99, %67
  %108 = load ptr, ptr %13, align 8
  call void @PQclear(ptr noundef %108)
  store i32 0, ptr %15, align 4
  br label %109

109:                                              ; preds = %63, %107
  call void @llvm.lifetime.end.p0(i64 4, ptr %14) #8
  call void @llvm.lifetime.end.p0(i64 8, ptr %13) #8
  %110 = load i32, ptr %15, align 4
  switch i32 %110, label %135 [
    i32 0, label %111
    i32 2, label %134
  ]

111:                                              ; preds = %109
  br label %112

112:                                              ; preds = %111, %53, %48
  %113 = load ptr, ptr %9, align 8
  %114 = load ptr, ptr getelementptr inbounds nuw (%struct._psqlSettings, ptr @pset, i32 0, i32 2), align 8
  %115 = load ptr, ptr getelementptr inbounds nuw (%struct._psqlSettings, ptr @pset, i32 0, i32 28), align 8
  call void @printQuery(ptr noundef %113, ptr noundef %10, ptr noundef %114, i1 noundef zeroext false, ptr noundef %115)
  call void @termPQExpBuffer(ptr noundef %8)
  %116 = load ptr, ptr %9, align 8
  call void @PQclear(ptr noundef %116)
  %117 = load ptr, ptr %12, align 8
  %118 = icmp ne ptr %117, null
  br i1 %118, label %119, label %133

119:                                              ; preds = %112
  call void @llvm.lifetime.start.p0(i64 8, ptr %16) #8
  store ptr null, ptr %16, align 8
  %120 = load ptr, ptr %12, align 8
  store ptr %120, ptr %16, align 8
  br label %121

121:                                              ; preds = %128, %119
  %122 = load ptr, ptr %16, align 8
  %123 = load ptr, ptr %122, align 8
  %124 = icmp ne ptr %123, null
  br i1 %124, label %125, label %131

125:                                              ; preds = %121
  %126 = load ptr, ptr %16, align 8
  %127 = load ptr, ptr %126, align 8
  call void @pg_free(ptr noundef %127)
  br label %128

128:                                              ; preds = %125
  %129 = load ptr, ptr %16, align 8
  %130 = getelementptr inbounds nuw ptr, ptr %129, i32 1
  store ptr %130, ptr %16, align 8
  br label %121, !llvm.loop !33

131:                                              ; preds = %121
  %132 = load ptr, ptr %12, align 8
  call void @pg_free(ptr noundef %132)
  call void @llvm.lifetime.end.p0(i64 8, ptr %16) #8
  br label %133

133:                                              ; preds = %131, %112
  store i1 true, ptr %4, align 1
  store i32 1, ptr %15, align 4
  br label %135

134:                                              ; preds = %109, %47, %40
  call void @termPQExpBuffer(ptr noundef %8)
  store i1 false, ptr %4, align 1
  store i32 1, ptr %15, align 4
  br label %135

135:                                              ; preds = %134, %133, %109
  call void @llvm.lifetime.end.p0(i64 8, ptr %12) #8
  call void @llvm.lifetime.end.p0(i64 4, ptr %11) #8
  call void @llvm.lifetime.end.p0(i64 168, ptr %10) #8
  call void @llvm.lifetime.end.p0(i64 8, ptr %9) #8
  call void @llvm.lifetime.end.p0(i64 24, ptr %8) #8
  %136 = load i1, ptr %4, align 1
  ret i1 %136
}