; Function Attrs: nounwind uwtable
define dso_local noundef zeroext i1 @listSchemas(ptr noundef %0, i1 noundef zeroext %1, i1 noundef zeroext %2) local_unnamed_addr #0 {
  %4 = alloca %struct.PQExpBufferData, align 8
  %5 = alloca %struct.printQueryOpt, align 8
  call void @llvm.lifetime.start.p0(i64 24, ptr nonnull %4) #8
  call void @llvm.lifetime.start.p0(i64 168, ptr nonnull %5) #8
  call void @llvm.memcpy.p0.p0.i64(ptr noundef nonnull align 8 dereferenceable(168) %5, ptr noundef nonnull align 8 dereferenceable(168) getelementptr inbounds nuw (i8, ptr @pset, i64 48), i64 168, i1 false)
  call void @initPQExpBuffer(ptr noundef nonnull %4) #8
  call void (ptr, ptr, ...) @printfPQExpBuffer(ptr noundef nonnull %4, ptr noundef nonnull @.str.437, ptr noundef nonnull @.str.2, ptr noundef nonnull @.str.26) #8
  br i1 %1, label %6, label %7

6:                                                ; preds = %3
  call void @appendPQExpBufferStr(ptr noundef nonnull %4, ptr noundef nonnull @.str.28) #8
  call void (ptr, ptr, ...) @appendPQExpBuffer(ptr noundef nonnull %4, ptr noundef nonnull @.str.916, ptr noundef nonnull @.str.438, ptr noundef nonnull @.str.917, ptr noundef nonnull @.str.438, ptr noundef nonnull @.str.167) #8
  call void (ptr, ptr, ...) @appendPQExpBuffer(ptr noundef nonnull %4, ptr noundef nonnull @.str.439, ptr noundef nonnull @.str.6) #8
  br label %7

7:                                                ; preds = %6, %3
  call void @appendPQExpBufferStr(ptr noundef nonnull %4, ptr noundef nonnull @.str.440) #8
  %8 = icmp ne ptr %0, null
  %or.cond = or i1 %8, %2
  br i1 %or.cond, label %10, label %9

9:                                                ; preds = %7
  call void @appendPQExpBufferStr(ptr noundef nonnull %4, ptr noundef nonnull @.str.441) #8
  br label %10

10:                                               ; preds = %9, %7
  %11 = xor i1 %or.cond, true
  %12 = call fastcc zeroext i1 @validateSQLNamePattern(ptr noundef %4, ptr noundef %0, i1 noundef zeroext %11, i1 noundef zeroext false, ptr noundef null, ptr noundef nonnull @.str.9, ptr noundef null, ptr noundef null, ptr noundef null, i32 noundef 2)
  br i1 %12, label %13, label %51

13:                                               ; preds = %10
  call void @appendPQExpBufferStr(ptr noundef nonnull %4, ptr noundef nonnull @.str.23) #8
  %14 = load ptr, ptr %4, align 8
  %15 = call ptr @PSQLexec(ptr noundef %14) #8
  %.not = icmp eq ptr %15, null
  br i1 %.not, label %51, label %16

16:                                               ; preds = %13
  %17 = getelementptr inbounds nuw i8, ptr %5, i64 128
  store ptr @.str.442, ptr %17, align 8
  %18 = getelementptr inbounds nuw i8, ptr %5, i64 144
  store i8 1, ptr %18, align 8
  %19 = load i32, ptr getelementptr inbounds nuw (i8, ptr @pset, i64 332), align 4
  %20 = icmp sgt i32 %19, 149999
  %or.cond3 = select i1 %8, i1 %20, i1 false
  br i1 %or.cond3, label %21, label %44

21:                                               ; preds = %16
  call void (ptr, ptr, ...) @printfPQExpBuffer(ptr noundef nonnull %4, ptr noundef nonnull @.str.443, ptr noundef nonnull %0) #8
  %22 = load ptr, ptr %4, align 8
  %23 = call ptr @PSQLexec(ptr noundef %22) #8
  %.not46 = icmp eq ptr %23, null
  br i1 %.not46, label %51, label %24

24:                                               ; preds = %21
  %25 = call i32 @PQntuples(ptr noundef nonnull %23) #8
  %26 = icmp sgt i32 %25, 0
  br i1 %26, label %27, label %.thread

27:                                               ; preds = %24
  %28 = add nuw i32 %25, 2
  %29 = sext i32 %28 to i64
  %30 = shl nsw i64 %29, 3
  %31 = call ptr @pg_malloc(i64 noundef %30) #8
  %32 = call ptr @pg_strdup(ptr noundef nonnull @.str.444) #8
  store ptr %32, ptr %31, align 8
  %wide.trip.count = zext nneg i32 %25 to i64
  br label %33

33:                                               ; preds = %27, %33
  %indvars.iv = phi i64 [ 0, %27 ], [ %indvars.iv.next, %33 ]
  %34 = trunc nuw nsw i64 %indvars.iv to i32
  %35 = call ptr @PQgetvalue(ptr noundef nonnull %23, i32 noundef %34, i32 noundef 0) #8
  call void (ptr, ptr, ...) @printfPQExpBuffer(ptr noundef nonnull %4, ptr noundef nonnull @.str.445, ptr noundef %35) #8
  %36 = load ptr, ptr %4, align 8
  %37 = call ptr @pg_strdup(ptr noundef %36) #8
  %indvars.iv.next = add nuw nsw i64 %indvars.iv, 1
  %38 = getelementptr inbounds nuw ptr, ptr %31, i64 %indvars.iv.next
  store ptr %37, ptr %38, align 8
  %exitcond.not = icmp eq i64 %indvars.iv.next, %wide.trip.count
  br i1 %exitcond.not, label %39, label %33, !llvm.loop !32

39:                                               ; preds = %33
  %40 = shl i64 %indvars.iv, 32
  %sext = add i64 %40, 8589934592
  %41 = ashr exact i64 %sext, 29
  %42 = getelementptr inbounds i8, ptr %31, i64 %41
  store ptr null, ptr %42, align 8
  %43 = getelementptr inbounds nuw i8, ptr %5, i64 136
  store ptr %31, ptr %43, align 8
  br label %.thread

.thread:                                          ; preds = %24, %39
  %.2 = phi ptr [ %31, %39 ], [ null, %24 ]
  call void @PQclear(ptr noundef nonnull %23) #8
  br label %44

44:                                               ; preds = %.thread, %16
  %.040 = phi ptr [ null, %16 ], [ %.2, %.thread ]
  %45 = load ptr, ptr getelementptr inbounds nuw (i8, ptr @pset, i64 16), align 8
  %46 = load ptr, ptr getelementptr inbounds nuw (i8, ptr @pset, i64 376), align 8
  call void @printQuery(ptr noundef nonnull %15, ptr noundef nonnull %5, ptr noundef %45, i1 noundef zeroext false, ptr noundef %46) #8
  call void @termPQExpBuffer(ptr noundef nonnull %4) #8
  call void @PQclear(ptr noundef nonnull %15) #8
  %.not47 = icmp eq ptr %.040, null
  br i1 %.not47, label %52, label %.preheader

.preheader:                                       ; preds = %44
  %47 = load ptr, ptr %.040, align 8
  %.not4854 = icmp eq ptr %47, null
  br i1 %.not4854, label %._crit_edge, label %.lr.ph

.lr.ph:                                           ; preds = %.preheader, %.lr.ph
  %48 = phi ptr [ %50, %.lr.ph ], [ %47, %.preheader ]
  %.055 = phi ptr [ %49, %.lr.ph ], [ %.040, %.preheader ]
  call void @pg_free(ptr noundef nonnull %48) #8
  %49 = getelementptr inbounds nuw i8, ptr %.055, i64 8
  %50 = load ptr, ptr %49, align 8
  %.not48 = icmp eq ptr %50, null
  br i1 %.not48, label %._crit_edge, label %.lr.ph, !llvm.loop !33

._crit_edge:                                      ; preds = %.lr.ph, %.preheader
  call void @pg_free(ptr noundef nonnull %.040) #8
  br label %52

51:                                               ; preds = %21, %13, %10
  call void @termPQExpBuffer(ptr noundef nonnull %4) #8
  br label %52

52:                                               ; preds = %44, %._crit_edge, %51
  %.039 = phi i1 [ false, %51 ], [ true, %._crit_edge ], [ true, %44 ]
  call void @llvm.lifetime.end.p0(i64 168, ptr nonnull %5) #8
  call void @llvm.lifetime.end.p0(i64 24, ptr nonnull %4) #8
  ret i1 %.039
}